target datalayout = "e-m:e-p270:32:32-p271:32:32-p272:64:64-i64:64-i128:128-f80:128-n8:16:32:64-S128"
target triple = "x86_64-pc-linux-gnu"

%struct.pmi2_job_info = type { %struct.slurm_step_id_msg, i32, i32, i32, i32, i32, ptr, i32, i32, ptr, ptr, ptr, ptr, ptr, ptr, ptr, ptr }
%struct.slurm_step_id_msg = type { i64, i32, i32, i32 }
%struct.buf_t = type { i32, ptr, i32, i32, i8, i8 }

@plugin_type = external constant [0 x i8], align 1
@kvs_seq = external global i32, align 4
@job_info = external global %struct.pmi2_job_info, align 8
@waiting_kvs_resp = external global i32, align 4
@.str.28 = private unnamed_addr constant [44 x i8] c"%s: %s: mpi/pmi2: in _handle_kvs_fence_resp\00", align 1
@__func__._handle_kvs_fence_resp = private unnamed_addr constant [23 x i8] c"_handle_kvs_fence_resp\00", align 1
@.str.29 = private unnamed_addr constant [79 x i8] c"%s: %s: mpi/pmi2: duplicate KVS_FENCE_RESP seq %d kvs_seq %d from srun ignored\00", align 1
@.str.30 = private unnamed_addr constant [54 x i8] c"mpi/pmi2: invalid kvs seq from srun, expect %u got %u\00", align 1
@.str.31 = private unnamed_addr constant [36 x i8] c"mpi/pmi2: invalid kvs seq from srun\00", align 1
@.str.32 = private unnamed_addr constant [61 x i8] c"%s: %s: mpi/pmi2: duplicate KVS_FENCE_RESP from srun ignored\00", align 1
@.str.33 = private unnamed_addr constant [33 x i8] c"%s: %s: mpi/pmi2: buf length: %u\00", align 1
@.str.34 = private unnamed_addr constant [41 x i8] c"mpi/pmi2: unpack kvs error in fence resp\00", align 1

; Function Attrs: nounwind uwtable
define internal i32 @_handle_kvs_fence_resp(i32 noundef %0, ptr noundef %1) #0 {
  %3 = alloca i32, align 4
  %4 = alloca i32, align 4
  %5 = alloca ptr, align 8
  %6 = alloca ptr, align 8
  %7 = alloca ptr, align 8
  %8 = alloca ptr, align 8
  %9 = alloca i32, align 4
  %10 = alloca i32, align 4
  %11 = alloca i32, align 4
  %12 = alloca i32, align 4
  %13 = alloca i32, align 4
  %14 = alloca i32, align 4
  store i32 %0, ptr %4, align 4
  store ptr %1, ptr %5, align 8
  call void @llvm.lifetime.start.p0(i64 8, ptr %6) #6
  call void @llvm.lifetime.start.p0(i64 8, ptr %7) #6
  call void @llvm.lifetime.start.p0(i64 8, ptr %8) #6
  store ptr null, ptr %8, align 8
  call void @llvm.lifetime.start.p0(i64 4, ptr %9) #6
  store i32 0, ptr %9, align 4
  call void @llvm.lifetime.start.p0(i64 4, ptr %10) #6
  call void @llvm.lifetime.start.p0(i64 4, ptr %11) #6
  br label %15

15:                                               ; preds = %2
  br label %16

16:                                               ; preds = %15
  %17 = call i32 @slurm_get_log_level()
  %18 = icmp sge i32 %17, 7
  br i1 %18, label %19, label %20

19:                                               ; preds = %16
  call void (i32, ptr, ...) @slurm_log_var(i32 noundef 7, ptr noundef @.str.28, ptr noundef @plugin_type, ptr noundef @__func__._handle_kvs_fence_resp)
  br label %20

20:                                               ; preds = %19, %16
  br label %21

21:                                               ; preds = %20
  br label %22

22:                                               ; preds = %21
  br label %23

23:                                               ; preds = %22
  br label %24

24:                                               ; preds = %23
  br label %25

25:                                               ; preds = %24
  %26 = load ptr, ptr %5, align 8
  %27 = call i32 @slurm_unpack32(ptr noundef %11, ptr noundef %26)
  %28 = icmp ne i32 %27, 0
  br i1 %28, label %29, label %30

29:                                               ; preds = %25
  br label %145

30:                                               ; preds = %25
  br label %31

31:                                               ; preds = %30
  br label %32

32:                                               ; preds = %31
  %33 = load i32, ptr %11, align 4
  %34 = load i32, ptr @kvs_seq, align 4
  %35 = sub nsw i32 %34, 2
  %36 = icmp eq i32 %33, %35
  br i1 %36, label %37, label %51

37:                                               ; preds = %32
  br label %38

38:                                               ; preds = %37
  br label %39

39:                                               ; preds = %38
  %40 = call i32 @slurm_get_log_level()
  %41 = icmp sge i32 %40, 5
  br i1 %41, label %42, label %45

42:                                               ; preds = %39
  %43 = load i32, ptr %11, align 4
  %44 = load i32, ptr @kvs_seq, align 4
  call void (i32, ptr, ...) @slurm_log_var(i32 noundef 5, ptr noundef @.str.29, ptr noundef @plugin_type, ptr noundef @__func__._handle_kvs_fence_resp, i32 noundef %43, i32 noundef %44)
  br label %45

45:                                               ; preds = %42, %39
  br label %46

46:                                               ; preds = %45
  br label %47

47:                                               ; preds = %46
  br label %48

48:                                               ; preds = %47
  br label %49

49:                                               ; preds = %48
  %50 = load i32, ptr %9, align 4
  store i32 %50, ptr %3, align 4
  store i32 1, ptr %12, align 4
  br label %147

51:                                               ; preds = %32
  %52 = load i32, ptr %11, align 4
  %53 = load i32, ptr @kvs_seq, align 4
  %54 = sub nsw i32 %53, 1
  %55 = icmp ne i32 %52, %54
  br i1 %55, label %56, label %61

56:                                               ; preds = %51
  %57 = load i32, ptr @kvs_seq, align 4
  %58 = sub nsw i32 %57, 1
  %59 = load i32, ptr %11, align 4
  %60 = call i32 (ptr, ...) @slurm_error(ptr noundef @.str.30, i32 noundef %58, i32 noundef %59)
  store i32 -1, ptr %9, align 4
  store ptr @.str.31, ptr %8, align 8
  br label %133

61:                                               ; preds = %51
  br label %62

62:                                               ; preds = %61
  %63 = load i32, ptr @waiting_kvs_resp, align 4
  %64 = icmp ne i32 %63, 0
  br i1 %64, label %77, label %65

65:                                               ; preds = %62
  br label %66

66:                                               ; preds = %65
  br label %67

67:                                               ; preds = %66
  %68 = call i32 @slurm_get_log_level()
  %69 = icmp sge i32 %68, 5
  br i1 %69, label %70, label %71

70:                                               ; preds = %67
  call void (i32, ptr, ...) @slurm_log_var(i32 noundef 5, ptr noundef @.str.32, ptr noundef @plugin_type, ptr noundef @__func__._handle_kvs_fence_resp)
  br label %71

71:                                               ; preds = %70, %67
  br label %72

72:                                               ; preds = %71
  br label %73

73:                                               ; preds = %72
  br label %74

74:                                               ; preds = %73
  br label %75

75:                                               ; preds = %74
  %76 = load i32, ptr %9, align 4
  store i32 %76, ptr %3, align 4
  store i32 1, ptr %12, align 4
  br label %147

77:                                               ; preds = %62
  store i32 0, ptr @waiting_kvs_resp, align 4
  br label %78

78:                                               ; preds = %77
  %79 = load ptr, ptr %5, align 8
  %80 = getelementptr inbounds nuw %struct.buf_t, ptr %79, i32 0, i32 2
  %81 = load i32, ptr %80, align 8
  %82 = load ptr, ptr %5, align 8
  %83 = getelementptr inbounds nuw %struct.buf_t, ptr %82, i32 0, i32 3
  %84 = load i32, ptr %83, align 4
  %85 = sub i32 %81, %84
  store i32 %85, ptr %10, align 4
  br label %86

86:                                               ; preds = %78
  br label %87

87:                                               ; preds = %86
  %88 = call i32 @slurm_get_log_level()
  %89 = icmp sge i32 %88, 7
  br i1 %89, label %90, label %92

90:                                               ; preds = %87
  %91 = load i32, ptr %10, align 4
  call void (i32, ptr, ...) @slurm_log_var(i32 noundef 7, ptr noundef @.str.33, ptr noundef @plugin_type, ptr noundef @__func__._handle_kvs_fence_resp, i32 noundef %91)
  br label %92

92:                                               ; preds = %90, %87
  br label %93

93:                                               ; preds = %92
  br label %94

94:                                               ; preds = %93
  br label %95

95:                                               ; preds = %94
  br label %96

96:                                               ; preds = %95
  br label %97

97:                                               ; preds = %128, %96
  %98 = load ptr, ptr %5, align 8
  %99 = getelementptr inbounds nuw %struct.buf_t, ptr %98, i32 0, i32 2
  %100 = load i32, ptr %99, align 8
  %101 = load ptr, ptr %5, align 8
  %102 = getelementptr inbounds nuw %struct.buf_t, ptr %101, i32 0, i32 3
  %103 = load i32, ptr %102, align 4
  %104 = sub i32 %100, %103
  %105 = icmp ugt i32 %104, 0
  br i1 %105, label %106, label %132

106:                                              ; preds = %97
  br label %107

107:                                              ; preds = %106
  call void @llvm.lifetime.start.p0(i64 4, ptr %13) #6
  %108 = load ptr, ptr %5, align 8
  %109 = call i32 @slurm_unpackstr_xmalloc_chooser(ptr noundef %6, ptr noundef %13, ptr noundef %108)
  %110 = icmp ne i32 %109, 0
  br i1 %110, label %111, label %112

111:                                              ; preds = %107
  store i32 8, ptr %12, align 4
  br label %113

112:                                              ; preds = %107
  store i32 0, ptr %12, align 4
  br label %113

113:                                              ; preds = %111, %112
  call void @llvm.lifetime.end.p0(i64 4, ptr %13) #6
  %114 = load i32, ptr %12, align 4
  switch i32 %114, label %147 [
    i32 0, label %115
    i32 8, label %145
  ]

115:                                              ; preds = %113
  br label %116

116:                                              ; preds = %115
  br label %117

117:                                              ; preds = %116
  br label %118

118:                                              ; preds = %117
  call void @llvm.lifetime.start.p0(i64 4, ptr %14) #6
  %119 = load ptr, ptr %5, align 8
  %120 = call i32 @slurm_unpackstr_xmalloc_chooser(ptr noundef %7, ptr noundef %14, ptr noundef %119)
  %121 = icmp ne i32 %120, 0
  br i1 %121, label %122, label %123

122:                                              ; preds = %118
  store i32 8, ptr %12, align 4
  br label %124

123:                                              ; preds = %118
  store i32 0, ptr %12, align 4
  br label %124

124:                                              ; preds = %122, %123
  call void @llvm.lifetime.end.p0(i64 4, ptr %14) #6
  %125 = load i32, ptr %12, align 4
  switch i32 %125, label %147 [
    i32 0, label %126
    i32 8, label %145
  ]

126:                                              ; preds = %124
  br label %127

127:                                              ; preds = %126
  br label %128

128:                                              ; preds = %127
  %129 = load ptr, ptr %6, align 8
  %130 = load ptr, ptr %7, align 8
  %131 = call i32 @kvs_put(ptr noundef %129, ptr noundef %130)
  call void @slurm_xfree(ptr noundef %6)
  call void @slurm_xfree(ptr noundef %7)
  br label %97, !llvm.loop !16

132:                                              ; preds = %97
  br label %133

133:                                              ; preds = %145, %132, %56
  %134 = load i32, ptr %9, align 4
  %135 = load ptr, ptr %8, align 8
  %136 = call i32 @send_kvs_fence_resp_to_clients(i32 noundef %134, ptr noundef %135)
  %137 = load i32, ptr %9, align 4
  %138 = icmp ne i32 %137, 0
  br i1 %138, label %139, label %143

139:                                              ; preds = %133
  %140 = load i32, ptr getelementptr inbounds nuw (%struct.slurm_step_id_msg, ptr @job_info, i32 0, i32 1), align 8
  %141 = load i32, ptr getelementptr inbounds nuw (%struct.slurm_step_id_msg, ptr @job_info, i32 0, i32 3), align 8
  %142 = call i32 @slurm_kill_job_step(i32 noundef %140, i32 noundef %141, i16 noundef zeroext 9, i16 noundef zeroext 0)
  br label %143

143:                                              ; preds = %139, %133
  %144 = load i32, ptr %9, align 4
  store i32 %144, ptr %3, align 4
  store i32 1, ptr %12, align 4
  br label %147

145:                                              ; preds = %124, %113, %29
  %146 = call i32 (ptr, ...) @slurm_error(ptr noundef @.str.34)
  store i32 -1, ptr %9, align 4
  store ptr @.str.34, ptr %8, align 8
  br label %133

147:                                              ; preds = %143, %124, %113, %75, %49
  call void @llvm.lifetime.end.p0(i64 4, ptr %11) #6
  call void @llvm.lifetime.end.p0(i64 4, ptr %10) #6
  call void @llvm.lifetime.end.p0(i64 4, ptr %9) #6
  call void @llvm.lifetime.end.p0(i64 8, ptr %8) #6
  call void @llvm.lifetime.end.p0(i64 8, ptr %7) #6
  call void @llvm.lifetime.end.p0(i64 8, ptr %6) #6
  %148 = load i32, ptr %3, align 4
  ret i32 %148
}