; Function Attrs: nounwind uwtable
define internal range(i32 -1, 1) i32 @_handle_kvs_fence_resp(i32 %0, ptr noundef %1) #0 {
  %3 = alloca ptr, align 8
  %4 = alloca ptr, align 8
  %5 = alloca i32, align 4
  %6 = alloca i32, align 4
  %7 = alloca i32, align 4
  call void @llvm.lifetime.start.p0(i64 8, ptr nonnull %3) #7
  call void @llvm.lifetime.start.p0(i64 8, ptr nonnull %4) #7
  call void @llvm.lifetime.start.p0(i64 4, ptr nonnull %5) #7
  %8 = tail call i32 @slurm_get_log_level() #7
  %9 = icmp sgt i32 %8, 6
  br i1 %9, label %10, label %11

10:                                               ; preds = %2
  tail call void (i32, ptr, ...) @slurm_log_var(i32 noundef 7, ptr noundef nonnull @.str.28, ptr noundef nonnull @plugin_type, ptr noundef nonnull @__func__._handle_kvs_fence_resp) #7
  br label %11

11:                                               ; preds = %2, %10
  %12 = call i32 @slurm_unpack32(ptr noundef nonnull %5, ptr noundef %1) #7
  %.not = icmp eq i32 %12, 0
  br i1 %.not, label %13, label %.loopexit

13:                                               ; preds = %11
  %14 = load i32, ptr %5, align 4
  %15 = load i32, ptr @kvs_seq, align 4
  %16 = add nsw i32 %15, -2
  %17 = icmp eq i32 %14, %16
  br i1 %17, label %18, label %24

18:                                               ; preds = %13
  %19 = call i32 @slurm_get_log_level() #7
  %20 = icmp sgt i32 %19, 4
  br i1 %20, label %21, label %62

21:                                               ; preds = %18
  %22 = load i32, ptr %5, align 4
  %23 = load i32, ptr @kvs_seq, align 4
  call void (i32, ptr, ...) @slurm_log_var(i32 noundef 5, ptr noundef nonnull @.str.29, ptr noundef nonnull @plugin_type, ptr noundef nonnull @__func__._handle_kvs_fence_resp, i32 noundef %22, i32 noundef %23) #7
  br label %62

24:                                               ; preds = %13
  %25 = add nsw i32 %15, -1
  %.not21 = icmp eq i32 %14, %25
  br i1 %.not21, label %28, label %26

26:                                               ; preds = %24
  %27 = call i32 (ptr, ...) @slurm_error(ptr noundef nonnull @.str.30, i32 noundef %25, i32 noundef %14) #7
  br label %56

28:                                               ; preds = %24
  %29 = load i32, ptr @waiting_kvs_resp, align 4
  %.not22 = icmp eq i32 %29, 0
  br i1 %.not22, label %30, label %34

30:                                               ; preds = %28
  %31 = call i32 @slurm_get_log_level() #7
  %32 = icmp sgt i32 %31, 4
  br i1 %32, label %33, label %62

33:                                               ; preds = %30
  call void (i32, ptr, ...) @slurm_log_var(i32 noundef 5, ptr noundef nonnull @.str.32, ptr noundef nonnull @plugin_type, ptr noundef nonnull @__func__._handle_kvs_fence_resp) #7
  br label %62

34:                                               ; preds = %28
  store i32 0, ptr @waiting_kvs_resp, align 4
  %35 = getelementptr inbounds nuw i8, ptr %1, i64 16
  %36 = load i32, ptr %35, align 8
  %37 = getelementptr inbounds nuw i8, ptr %1, i64 20
  %38 = load i32, ptr %37, align 4
  %39 = call i32 @slurm_get_log_level() #7
  %40 = icmp sgt i32 %39, 6
  br i1 %40, label %41, label %43

41:                                               ; preds = %34
  %42 = sub i32 %36, %38
  call void (i32, ptr, ...) @slurm_log_var(i32 noundef 7, ptr noundef nonnull @.str.33, ptr noundef nonnull @plugin_type, ptr noundef nonnull @__func__._handle_kvs_fence_resp, i32 noundef %42) #7
  br label %43

43:                                               ; preds = %41, %34
  %44 = load i32, ptr %35, align 8
  %45 = load i32, ptr %37, align 4
  %.not2332 = icmp eq i32 %44, %45
  br i1 %.not2332, label %._crit_edge, label %.lr.ph

.lr.ph:                                           ; preds = %43, %49
  call void @llvm.lifetime.start.p0(i64 4, ptr nonnull %6) #7
  %46 = call i32 @slurm_unpackstr_xmalloc_chooser(ptr noundef nonnull %3, ptr noundef nonnull %6, ptr noundef nonnull %1) #7
  %.not24 = icmp eq i32 %46, 0
  call void @llvm.lifetime.end.p0(i64 4, ptr nonnull %6) #7
  br i1 %.not24, label %47, label %.loopexit

47:                                               ; preds = %.lr.ph
  call void @llvm.lifetime.start.p0(i64 4, ptr nonnull %7) #7
  %48 = call i32 @slurm_unpackstr_xmalloc_chooser(ptr noundef nonnull %4, ptr noundef nonnull %7, ptr noundef nonnull %1) #7
  %.not25 = icmp eq i32 %48, 0
  call void @llvm.lifetime.end.p0(i64 4, ptr nonnull %7) #7
  br i1 %.not25, label %49, label %.loopexit

49:                                               ; preds = %47
  %50 = load ptr, ptr %3, align 8
  %51 = load ptr, ptr %4, align 8
  %52 = call i32 @kvs_put(ptr noundef %50, ptr noundef %51) #7
  call void @slurm_xfree(ptr noundef nonnull %3) #7
  call void @slurm_xfree(ptr noundef nonnull %4) #7
  %53 = load i32, ptr %35, align 8
  %54 = load i32, ptr %37, align 4
  %.not23 = icmp eq i32 %53, %54
  br i1 %.not23, label %._crit_edge, label %.lr.ph, !llvm.loop !16

._crit_edge:                                      ; preds = %49, %43
  %55 = call i32 @send_kvs_fence_resp_to_clients(i32 noundef 0, ptr noundef null) #7
  br label %62

56:                                               ; preds = %.loopexit, %26
  %.018.ph = phi ptr [ @.str.31, %26 ], [ @.str.34, %.loopexit ]
  %57 = call i32 @send_kvs_fence_resp_to_clients(i32 noundef -1, ptr noundef nonnull %.018.ph) #7
  %58 = load i32, ptr getelementptr inbounds nuw (i8, ptr @job_info, i64 8), align 8
  %59 = load i32, ptr getelementptr inbounds nuw (i8, ptr @job_info, i64 16), align 8
  %60 = call i32 @slurm_kill_job_step(i32 noundef %58, i32 noundef %59, i16 noundef zeroext 9, i16 noundef zeroext 0) #7
  br label %62

.loopexit:                                        ; preds = %47, %.lr.ph, %11
  %61 = call i32 (ptr, ...) @slurm_error(ptr noundef nonnull @.str.34) #7
  br label %56

62:                                               ; preds = %._crit_edge, %56, %30, %33, %18, %21
  %.016 = phi i32 [ 0, %21 ], [ 0, %18 ], [ 0, %33 ], [ 0, %30 ], [ -1, %56 ], [ 0, %._crit_edge ]
  call void @llvm.lifetime.end.p0(i64 4, ptr nonnull %5) #7
  call void @llvm.lifetime.end.p0(i64 8, ptr nonnull %4) #7
  call void @llvm.lifetime.end.p0(i64 8, ptr nonnull %3) #7
  ret i32 %.016
}